Certificate:
    Data:
        Version: 3 (0x2)
        Serial Number:
            f3:72:93:1f:1a:7f:47:54
        Signature Algorithm: sha1WithRSAEncryption
        Issuer: C=US, ST=North Carolina, O=Start Charlotte, OU=Retsyn, CN=retsyn.startcharlotte.com/emailAddress=ben@startcharlotte.com
        Validity
            Not Before: Jun 24 14:38:35 2011 GMT
            Not After : Jun 23 14:38:35 2012 GMT
        Subject: C=US, ST=North Carolina, L=Charlotte, O=Internet Widgits Pty Ltd, CN=retsyn.vandgrift.com/emailAddress=ben@vandgrift.com
        Subject Public Key Info:
            Public Key Algorithm: rsaEncryption
                Public-Key: (1024 bit)
                Modulus:
                    00:a8:8e:e5:50:74:3e:9d:23:47:4c:ac:18:2c:5d:
                    27:66:df:b8:52:f1:99:74:6b:d9:4a:77:47:1e:c9:
                    c1:08:81:1a:36:f9:f5:68:9f:0a:92:74:b7:d9:88:
                    db:34:ce:5b:ec:23:89:3c:5d:db:78:56:e7:93:3a:
                    da:b4:41:a7:23:74:41:d6:e3:84:cd:2e:65:23:40:
                    37:e8:d5:08:7e:4c:23:ff:c3:2c:19:e6:ae:77:7f:
                    d6:96:dd:e0:f8:99:70:9c:72:08:c6:f1:48:96:0c:
                    89:d3:9a:d1:4a:3c:4e:18:ab:89:45:80:ff:4c:97:
                    57:5e:5f:4a:bc:05:a1:10:07
                Exponent: 65537 (0x10001)
        X509v3 extensions:
            X509v3 Basic Constraints: 
                CA:FALSE
            Netscape Comment: 
                OpenSSL Generated Certificate
            X509v3 Subject Key Identifier: 
                E2:A5:E2:17:E7:73:14:24:0E:A4:D9:19:DD:D6:7D:B5:64:9C:7B:D4
            X509v3 Authority Key Identifier: 
                keyid:2E:A5:0A:90:D6:EC:B9:1C:DE:61:E4:CD:4F:94:0C:B1:3C:19:F6:A4

    Signature Algorithm: sha1WithRSAEncryption
        ad:b0:8e:df:a6:0d:60:4c:26:d3:45:9c:47:1e:40:cd:46:93:
        e0:a2:bd:a4:50:f7:42:4a:b6:ed:e9:b7:2a:2c:f3:db:e5:e7:
        f7:5e:ac:e7:1d:93:bb:ba:21:a1:14:e9:0d:a0:c9:fb:75:98:
        5c:d5:cd:23:4c:4f:1f:4b:5f:10:ff:f4:08:dd:03:1e:a2:b1:
        87:60:b1:71:d3:7a:c0:53:45:3c:00:22:ed:27:43:80:ea:88:
        6c:1c:14:75:e7:91:43:d1:c5:22:41:0d:42:18:b2:ae:ea:b1:
        0a:7b:11:3f:5e:10:61:66:e6:d5:c7:57:48:03:f0:6e:68:39:
        2c:c2
-----BEGIN CERTIFICATE-----
MIIDNTCCAp6gAwIBAgIJAPNykx8af0dUMA0GCSqGSIb3DQEBBQUAMIGcMQswCQYD
VQQGEwJVUzEXMBUGA1UECAwOTm9ydGggQ2Fyb2xpbmExGDAWBgNVBAoMD1N0YXJ0
IENoYXJsb3R0ZTEPMA0GA1UECwwGUmV0c3luMSIwIAYDVQQDDBlyZXRzeW4uc3Rh
cnRjaGFybG90dGUuY29tMSUwIwYJKoZIhvcNAQkBFhZiZW5Ac3RhcnRjaGFybG90
dGUuY29tMB4XDTExMDYyNDE0MzgzNVoXDTEyMDYyMzE0MzgzNVowgZ4xCzAJBgNV
BAYTAlVTMRcwFQYDVQQIDA5Ob3J0aCBDYXJvbGluYTESMBAGA1UEBwwJQ2hhcmxv
dHRlMSEwHwYDVQQKDBhJbnRlcm5ldCBXaWRnaXRzIFB0eSBMdGQxHTAbBgNVBAMM
FHJldHN5bi52YW5kZ3JpZnQuY29tMSAwHgYJKoZIhvcNAQkBFhFiZW5AdmFuZGdy
aWZ0LmNvbTCBnzANBgkqhkiG9w0BAQEFAAOBjQAwgYkCgYEAqI7lUHQ+nSNHTKwY
LF0nZt+4UvGZdGvZSndHHsnBCIEaNvn1aJ8KknS32YjbNM5b7COJPF3beFbnkzra
tEGnI3RB1uOEzS5lI0A36NUIfkwj/8MsGeaud3/Wlt3g+JlwnHIIxvFIlgyJ05rR
SjxOGKuJRYD/TJdXXl9KvAWhEAcCAwEAAaN7MHkwCQYDVR0TBAIwADAsBglghkgB
hvhCAQ0EHxYdT3BlblNTTCBHZW5lcmF0ZWQgQ2VydGlmaWNhdGUwHQYDVR0OBBYE
FOKl4hfncxQkDqTZGd3WfbVknHvUMB8GA1UdIwQYMBaAFC6lCpDW7Lkc3mHkzU+U
DLE8GfakMA0GCSqGSIb3DQEBBQUAA4GBAK2wjt+mDWBMJtNFnEceQM1Gk+CivaRQ
90JKtu3ptyos89vl5/derOcdk7u6IaEU6Q2gyft1mFzVzSNMTx9LXxD/9AjdAx6i
sYdgsXHTesBTRTwAIu0nQ4DqiGwcFHXnkUPRxSJBDUIYsq7qsQp7ET9eEGFm5tXH
V0gD8G5oOSzC
-----END CERTIFICATE-----
