Certificate:
    Data:
        Version: 3 (0x2)
        Serial Number:
            f3:72:93:1f:1a:7f:47:52
        Signature Algorithm: sha1WithRSAEncryption
        Issuer: C=US, ST=North Carolina, O=Start Charlotte, OU=Retsyn, CN=retsyn.startcharlotte.com/emailAddress=ben@startcharlotte.com
        Validity
            Not Before: Apr 15 18:11:57 2011 GMT
            Not After : Apr 14 18:11:57 2014 GMT
        Subject: C=US, ST=North Carolina, O=Start Charlotte, OU=Retsyn, CN=retsyn.startcharlotte.com/emailAddress=ben@startcharlotte.com
        Subject Public Key Info:
            Public Key Algorithm: rsaEncryption
                Public-Key: (1024 bit)
                Modulus:
                    00:de:d6:69:07:6b:fc:ee:bb:6a:d1:2f:82:76:90:
                    f6:7a:9d:e7:1d:08:bb:ef:d2:16:1d:df:71:fd:d8:
                    69:a1:68:a4:16:47:2d:98:e9:1f:75:22:1a:9b:31:
                    23:4f:b7:bd:90:b1:8f:7d:cb:03:c3:ea:14:9f:5c:
                    67:9c:0f:c5:15:b6:2e:e3:b5:54:8e:55:df:fd:df:
                    3b:f8:00:e8:29:ca:9a:44:66:33:43:46:3a:71:b1:
                    a5:6a:98:b3:c1:b5:32:5d:44:9f:ee:62:17:4a:2e:
                    f3:0d:f3:f0:2b:d1:4b:69:25:54:00:d2:92:0a:83:
                    1d:2c:f5:70:36:0f:8d:52:f9
                Exponent: 65537 (0x10001)
        X509v3 extensions:
            X509v3 Subject Key Identifier: 
                2E:A5:0A:90:D6:EC:B9:1C:DE:61:E4:CD:4F:94:0C:B1:3C:19:F6:A4
            X509v3 Authority Key Identifier: 
                keyid:2E:A5:0A:90:D6:EC:B9:1C:DE:61:E4:CD:4F:94:0C:B1:3C:19:F6:A4

            X509v3 Basic Constraints: 
                CA:TRUE
    Signature Algorithm: sha1WithRSAEncryption
        15:ad:49:87:b7:39:25:40:88:29:13:69:99:a0:c3:9f:4a:bf:
        0f:2b:de:52:67:1d:d0:f8:a7:6f:f6:b6:09:a1:1f:50:03:ab:
        b7:4b:22:ed:3a:ad:79:a6:85:e0:36:33:a4:c3:4d:8b:49:bf:
        a6:4d:61:3b:1a:04:36:d7:fa:cf:5e:d7:51:e8:b9:b2:0f:e4:
        22:40:56:6a:f2:5e:32:8a:36:48:1a:4f:22:66:e7:9c:88:15:
        62:dc:78:62:fa:d5:2b:c7:56:bb:ed:33:ec:61:aa:0e:82:74:
        90:6e:49:1a:1b:ae:77:94:4e:de:d2:0a:52:48:15:bd:03:b1:
        db:68
-----BEGIN CERTIFICATE-----
MIIDCDCCAnGgAwIBAgIJAPNykx8af0dSMA0GCSqGSIb3DQEBBQUAMIGcMQswCQYD
VQQGEwJVUzEXMBUGA1UECAwOTm9ydGggQ2Fyb2xpbmExGDAWBgNVBAoMD1N0YXJ0
IENoYXJsb3R0ZTEPMA0GA1UECwwGUmV0c3luMSIwIAYDVQQDDBlyZXRzeW4uc3Rh
cnRjaGFybG90dGUuY29tMSUwIwYJKoZIhvcNAQkBFhZiZW5Ac3RhcnRjaGFybG90
dGUuY29tMB4XDTExMDQxNTE4MTE1N1oXDTE0MDQxNDE4MTE1N1owgZwxCzAJBgNV
BAYTAlVTMRcwFQYDVQQIDA5Ob3J0aCBDYXJvbGluYTEYMBYGA1UECgwPU3RhcnQg
Q2hhcmxvdHRlMQ8wDQYDVQQLDAZSZXRzeW4xIjAgBgNVBAMMGXJldHN5bi5zdGFy
dGNoYXJsb3R0ZS5jb20xJTAjBgkqhkiG9w0BCQEWFmJlbkBzdGFydGNoYXJsb3R0
ZS5jb20wgZ8wDQYJKoZIhvcNAQEBBQADgY0AMIGJAoGBAN7WaQdr/O67atEvgnaQ
9nqd5x0Iu+/SFh3fcf3YaaFopBZHLZjpH3UiGpsxI0+3vZCxj33LA8PqFJ9cZ5wP
xRW2LuO1VI5V3/3fO/gA6CnKmkRmM0NGOnGxpWqYs8G1Ml1En+5iF0ou8w3z8CvR
S2klVADSkgqDHSz1cDYPjVL5AgMBAAGjUDBOMB0GA1UdDgQWBBQupQqQ1uy5HN5h
5M1PlAyxPBn2pDAfBgNVHSMEGDAWgBQupQqQ1uy5HN5h5M1PlAyxPBn2pDAMBgNV
HRMEBTADAQH/MA0GCSqGSIb3DQEBBQUAA4GBABWtSYe3OSVAiCkTaZmgw59Kvw8r
3lJnHdD4p2/2tgmhH1ADq7dLIu06rXmmheA2M6TDTYtJv6ZNYTsaBDbX+s9e11Ho
ubIP5CJAVmryXjKKNkgaTyJm55yIFWLceGL61SvHVrvtM+xhqg6CdJBuSRobrneU
Tt7SClJIFb0Dsdto
-----END CERTIFICATE-----
