Certificate:
    Data:
        Version: 3 (0x2)
        Serial Number:
            f3:72:93:1f:1a:7f:47:53
        Signature Algorithm: sha1WithRSAEncryption
        Issuer: C=US, ST=North Carolina, O=Start Charlotte, OU=Retsyn, CN=retsyn.startcharlotte.com/emailAddress=ben@startcharlotte.com
        Validity
            Not Before: Apr 22 15:26:28 2011 GMT
            Not After : Apr 21 15:26:28 2012 GMT
        Subject: C=US, ST=North Carolina, L=Charlotte, O=Retsyn, OU=Administration, CN=Bob Administrator/emailAddress=ben@vandgrift.com
        Subject Public Key Info:
            Public Key Algorithm: rsaEncryption
                Public-Key: (1024 bit)
                Modulus:
                    00:f4:86:72:63:88:21:9e:b9:f4:31:1e:4f:17:1a:
                    a7:16:e1:e2:2a:e9:aa:76:07:8a:cb:ed:bf:b7:0a:
                    ab:1a:ba:bc:83:21:b1:51:39:83:41:02:41:93:87:
                    b1:2d:b8:a5:b8:e6:5e:b5:c7:96:c1:16:6a:b3:75:
                    bf:0b:92:57:a9:c5:5a:4b:72:8c:88:5c:b8:f9:22:
                    a4:ac:e1:61:67:47:9e:74:85:73:60:0d:c1:1a:19:
                    b5:fb:de:a9:19:ea:75:c7:95:a8:ea:7f:67:a9:30:
                    1a:81:79:b0:c5:3a:2c:eb:68:53:55:3c:1a:7f:58:
                    87:6d:20:ea:e3:14:40:b2:c9
                Exponent: 65537 (0x10001)
        X509v3 extensions:
            X509v3 Basic Constraints: 
                CA:FALSE
            Netscape Comment: 
                OpenSSL Generated Certificate
            X509v3 Subject Key Identifier: 
                58:20:79:04:8D:D7:14:F0:34:85:32:42:23:8D:67:9A:E1:84:CA:43
            X509v3 Authority Key Identifier: 
                keyid:2E:A5:0A:90:D6:EC:B9:1C:DE:61:E4:CD:4F:94:0C:B1:3C:19:F6:A4

    Signature Algorithm: sha1WithRSAEncryption
        44:0b:ae:0b:1a:1c:d6:ea:9a:85:44:2f:f9:a9:59:c3:71:cb:
        d6:95:09:3d:8b:98:5d:e1:be:27:a1:33:6d:64:5e:ea:52:dc:
        ba:74:27:a0:7c:50:e0:7d:3e:5b:81:bb:ff:cf:8b:62:1d:e8:
        2f:5a:3c:5f:15:c6:8e:80:5d:be:db:5b:72:26:c5:d1:51:b6:
        cc:54:dd:8b:0d:8e:07:8d:d2:1e:f6:a6:46:70:da:bf:98:48:
        ea:06:35:34:5f:ea:59:22:73:39:43:69:10:14:c3:1a:0c:38:
        02:6e:49:b5:6b:2d:0a:9f:ce:9b:68:85:2f:55:e6:13:b3:25:
        4d:20
-----BEGIN CERTIFICATE-----
MIIDOTCCAqKgAwIBAgIJAPNykx8af0dTMA0GCSqGSIb3DQEBBQUAMIGcMQswCQYD
VQQGEwJVUzEXMBUGA1UECAwOTm9ydGggQ2Fyb2xpbmExGDAWBgNVBAoMD1N0YXJ0
IENoYXJsb3R0ZTEPMA0GA1UECwwGUmV0c3luMSIwIAYDVQQDDBlyZXRzeW4uc3Rh
cnRjaGFybG90dGUuY29tMSUwIwYJKoZIhvcNAQkBFhZiZW5Ac3RhcnRjaGFybG90
dGUuY29tMB4XDTExMDQyMjE1MjYyOFoXDTEyMDQyMTE1MjYyOFowgaIxCzAJBgNV
BAYTAlVTMRcwFQYDVQQIDA5Ob3J0aCBDYXJvbGluYTESMBAGA1UEBwwJQ2hhcmxv
dHRlMQ8wDQYDVQQKDAZSZXRzeW4xFzAVBgNVBAsMDkFkbWluaXN0cmF0aW9uMRow
GAYDVQQDDBFCb2IgQWRtaW5pc3RyYXRvcjEgMB4GCSqGSIb3DQEJARYRYmVuQHZh
bmRncmlmdC5jb20wgZ8wDQYJKoZIhvcNAQEBBQADgY0AMIGJAoGBAPSGcmOIIZ65
9DEeTxcapxbh4irpqnYHisvtv7cKqxq6vIMhsVE5g0ECQZOHsS24pbjmXrXHlsEW
arN1vwuSV6nFWktyjIhcuPkipKzhYWdHnnSFc2ANwRoZtfveqRnqdceVqOp/Z6kw
GoF5sMU6LOtoU1U8Gn9Yh20g6uMUQLLJAgMBAAGjezB5MAkGA1UdEwQCMAAwLAYJ
YIZIAYb4QgENBB8WHU9wZW5TU0wgR2VuZXJhdGVkIENlcnRpZmljYXRlMB0GA1Ud
DgQWBBRYIHkEjdcU8DSFMkIjjWea4YTKQzAfBgNVHSMEGDAWgBQupQqQ1uy5HN5h
5M1PlAyxPBn2pDANBgkqhkiG9w0BAQUFAAOBgQBEC64LGhzW6pqFRC/5qVnDccvW
lQk9i5hd4b4noTNtZF7qUty6dCegfFDgfT5bgbv/z4tiHegvWjxfFcaOgF2+21ty
JsXRUbbMVN2LDY4HjdIe9qZGcNq/mEjqBjU0X+pZInM5Q2kQFMMaDDgCbkm1ay0K
n86baIUvVeYTsyVNIA==
-----END CERTIFICATE-----
